; Function Attrs: mustprogress uwtable
define noundef zeroext i1 @_ZN9grpc_core14ReclaimerQueue6Handle7RequeueEPS0_(ptr noundef nonnull align 8 dereferenceable(24) %this, ptr nocapture noundef readonly %new_queue) local_unnamed_addr #4 align 2 personality ptr @__gxx_personality_v0 {
entry:
  %agg.tmp = alloca %"class.grpc_core::RefCountedPtr", align 8
  %sweep_ = getelementptr inbounds i8, ptr %this, i64 16
  %0 = load atomic i64, ptr %sweep_ monotonic, align 8
  %tobool.not = icmp ne i64 %0, 0
  br i1 %tobool.not, label %if.then, label %return

if.then:                                          ; preds = %entry
  tail call void @llvm.experimental.noalias.scope.decl(metadata !4)
  %refs_.i.i = getelementptr inbounds i8, ptr %this, i64 8
  %1 = atomicrmw add ptr %refs_.i.i, i64 1 monotonic, align 8, !noalias !4
  store ptr %this, ptr %agg.tmp, align 8, !alias.scope !4
  invoke void @_ZN9grpc_core14ReclaimerQueue7EnqueueENS_13RefCountedPtrINS0_6HandleEEE(ptr noundef nonnull align 8 dereferenceable(16) %new_queue, ptr noundef nonnull %agg.tmp)
          to label %invoke.cont unwind label %lpad

invoke.cont:                                      ; preds = %if.then
  %2 = load ptr, ptr %agg.tmp, align 8
  %cmp.not.i = icmp eq ptr %2, null
  br i1 %cmp.not.i, label %return, label %if.then.i

if.then.i:                                        ; preds = %invoke.cont
  %refs_.i.i1 = getelementptr inbounds i8, ptr %2, i64 8
  %3 = atomicrmw sub ptr %refs_.i.i1, i64 1 acq_rel, align 8
  %cmp.i.i.i = icmp eq i64 %3, 1
  br i1 %cmp.i.i.i, label %if.then.i.i, label %return

if.then.i.i:                                      ; preds = %if.then.i
  %vtable.i.i.i = load ptr, ptr %2, align 8
  %vfn.i.i.i = getelementptr inbounds i8, ptr %vtable.i.i.i, i64 16
  %4 = load ptr, ptr %vfn.i.i.i, align 8
  tail call void %4(ptr noundef nonnull align 8 dereferenceable(24) %2) #25
  br label %return

lpad:                                             ; preds = %if.then
  %5 = landingpad { ptr, i32 }
          cleanup
  %6 = load ptr, ptr %agg.tmp, align 8
  %cmp.not.i2 = icmp eq ptr %6, null
  br i1 %cmp.not.i2, label %_ZN9grpc_core13RefCountedPtrINS_14ReclaimerQueue6HandleEED2Ev.exit9, label %if.then.i3

if.then.i3:                                       ; preds = %lpad
  %refs_.i.i4 = getelementptr inbounds i8, ptr %6, i64 8
  %7 = atomicrmw sub ptr %refs_.i.i4, i64 1 acq_rel, align 8
  %cmp.i.i.i5 = icmp eq i64 %7, 1
  br i1 %cmp.i.i.i5, label %if.then.i.i6, label %_ZN9grpc_core13RefCountedPtrINS_14ReclaimerQueue6HandleEED2Ev.exit9

if.then.i.i6:                                     ; preds = %if.then.i3
  %vtable.i.i.i7 = load ptr, ptr %6, align 8
  %vfn.i.i.i8 = getelementptr inbounds i8, ptr %vtable.i.i.i7, i64 16
  %8 = load ptr, ptr %vfn.i.i.i8, align 8
  tail call void %8(ptr noundef nonnull align 8 dereferenceable(24) %6) #25
  br label %_ZN9grpc_core13RefCountedPtrINS_14ReclaimerQueue6HandleEED2Ev.exit9

_ZN9grpc_core13RefCountedPtrINS_14ReclaimerQueue6HandleEED2Ev.exit9: ; preds = %lpad, %if.then.i3, %if.then.i.i6
  resume { ptr, i32 } %5

return:                                           ; preds = %if.then.i.i, %if.then.i, %invoke.cont, %entry
  ret i1 %tobool.not
}